(dp1
S'name1'
p2
(iperson
person
p3
(dp4
S'old'
p5
I10
sS'name'
p6
g2
sS'sex'
p7
I1
sbs.(dp1
S'name1'
p2
(iperson
person
p3
(dp4
S'old'
p5
I10
sS'name'
p6
g2
sS'sex'
p7
I1
sbs.(dp1
S'name1'
p2
(iperson
person
p3
(dp4
S'old'
p5
I10
sS'name'
p6
g2
sS'sex'
p7
I1
sbs.(dp1
S'name1'
p2
(iperson
person
p3
(dp4
S'old'
p5
I10
sS'name'
p6
g2
sS'sex'
p7
I1
sbs.(dp1
S'name1'
p2
(iperson
person
p3
(dp4
S'old'
p5
I10
sS'name'
p6
g2
sS'sex'
p7
I1
sbs.(dp1
S'name1'
p2
(iperson
person
p3
(dp4
S'old'
p5
I10
sS'name'
p6
g2
sS'sex'
p7
I1
sbs.test(dp1
S'name1'
p2
(iperson
person
p3
(dp4
S'old'
p5
I10
sS'name'
p6
g2
sS'sex'
p7
I1
sbs.test(dp1
S'name1'
p2
(iperson
person
p3
(dp4
S'old'
p5
I10
sS'name'
p6
g2
sS'sex'
p7
I1
sbs.